
ledc.elf:     file format elf32-littlearm


Disassembly of section .text:

87800000 <_start>:
87800000:	e10f0000 	mrs	r0, CPSR
87800004:	e3c0001f 	bic	r0, r0, #31
87800008:	e3800013 	orr	r0, r0, #19
8780000c:	e129f000 	msr	CPSR_fc, r0
87800010:	e51fd000 	ldr	sp, [pc, #-0]	; 87800018 <_start+0x18>
87800014:	ea00007f 	b	87800218 <__main_from_arm>
87800018:	80200000 	eorhi	r0, r0, r0

8780001c <IOMUXC_SetPinMux>:
8780001c:	b480      	push	{r7}
8780001e:	b085      	sub	sp, #20
87800020:	af00      	add	r7, sp, #0
87800022:	60f8      	str	r0, [r7, #12]
87800024:	60b9      	str	r1, [r7, #8]
87800026:	607a      	str	r2, [r7, #4]
87800028:	603b      	str	r3, [r7, #0]
8780002a:	68bb      	ldr	r3, [r7, #8]
8780002c:	f003 010f 	and.w	r1, r3, #15
87800030:	69fb      	ldr	r3, [r7, #28]
87800032:	011b      	lsls	r3, r3, #4
87800034:	f003 0210 	and.w	r2, r3, #16
87800038:	68fb      	ldr	r3, [r7, #12]
8780003a:	430a      	orrs	r2, r1
8780003c:	601a      	str	r2, [r3, #0]
8780003e:	687b      	ldr	r3, [r7, #4]
87800040:	2b00      	cmp	r3, #0
87800042:	d004      	beq.n	8780004e <IOMUXC_SetPinMux+0x32>
87800044:	687b      	ldr	r3, [r7, #4]
87800046:	683a      	ldr	r2, [r7, #0]
87800048:	f002 0207 	and.w	r2, r2, #7
8780004c:	601a      	str	r2, [r3, #0]
8780004e:	bf00      	nop
87800050:	3714      	adds	r7, #20
87800052:	46bd      	mov	sp, r7
87800054:	f85d 7b04 	ldr.w	r7, [sp], #4
87800058:	4770      	bx	lr

8780005a <IOMUXC_SetPinConfig>:
8780005a:	b480      	push	{r7}
8780005c:	b085      	sub	sp, #20
8780005e:	af00      	add	r7, sp, #0
87800060:	60f8      	str	r0, [r7, #12]
87800062:	60b9      	str	r1, [r7, #8]
87800064:	607a      	str	r2, [r7, #4]
87800066:	603b      	str	r3, [r7, #0]
87800068:	69bb      	ldr	r3, [r7, #24]
8780006a:	2b00      	cmp	r3, #0
8780006c:	d002      	beq.n	87800074 <IOMUXC_SetPinConfig+0x1a>
8780006e:	69bb      	ldr	r3, [r7, #24]
87800070:	69fa      	ldr	r2, [r7, #28]
87800072:	601a      	str	r2, [r3, #0]
87800074:	bf00      	nop
87800076:	3714      	adds	r7, #20
87800078:	46bd      	mov	sp, r7
8780007a:	f85d 7b04 	ldr.w	r7, [sp], #4
8780007e:	4770      	bx	lr

87800080 <clk_enable>:
87800080:	b480      	push	{r7}
87800082:	af00      	add	r7, sp, #0
87800084:	f44f 4380 	mov.w	r3, #16384	; 0x4000
87800088:	f2c0 230c 	movt	r3, #524	; 0x20c
8780008c:	f04f 32ff 	mov.w	r2, #4294967295	; 0xffffffff
87800090:	669a      	str	r2, [r3, #104]	; 0x68
87800092:	f44f 4380 	mov.w	r3, #16384	; 0x4000
87800096:	f2c0 230c 	movt	r3, #524	; 0x20c
8780009a:	f04f 32ff 	mov.w	r2, #4294967295	; 0xffffffff
8780009e:	66da      	str	r2, [r3, #108]	; 0x6c
878000a0:	f44f 4380 	mov.w	r3, #16384	; 0x4000
878000a4:	f2c0 230c 	movt	r3, #524	; 0x20c
878000a8:	f04f 32ff 	mov.w	r2, #4294967295	; 0xffffffff
878000ac:	671a      	str	r2, [r3, #112]	; 0x70
878000ae:	f44f 4380 	mov.w	r3, #16384	; 0x4000
878000b2:	f2c0 230c 	movt	r3, #524	; 0x20c
878000b6:	f04f 32ff 	mov.w	r2, #4294967295	; 0xffffffff
878000ba:	675a      	str	r2, [r3, #116]	; 0x74
878000bc:	f44f 4380 	mov.w	r3, #16384	; 0x4000
878000c0:	f2c0 230c 	movt	r3, #524	; 0x20c
878000c4:	f04f 32ff 	mov.w	r2, #4294967295	; 0xffffffff
878000c8:	679a      	str	r2, [r3, #120]	; 0x78
878000ca:	f44f 4380 	mov.w	r3, #16384	; 0x4000
878000ce:	f2c0 230c 	movt	r3, #524	; 0x20c
878000d2:	f04f 32ff 	mov.w	r2, #4294967295	; 0xffffffff
878000d6:	67da      	str	r2, [r3, #124]	; 0x7c
878000d8:	f44f 4380 	mov.w	r3, #16384	; 0x4000
878000dc:	f2c0 230c 	movt	r3, #524	; 0x20c
878000e0:	f04f 32ff 	mov.w	r2, #4294967295	; 0xffffffff
878000e4:	f8c3 2080 	str.w	r2, [r3, #128]	; 0x80
878000e8:	bf00      	nop
878000ea:	46bd      	mov	sp, r7
878000ec:	f85d 7b04 	ldr.w	r7, [sp], #4
878000f0:	4770      	bx	lr

878000f2 <led_init>:
878000f2:	b580      	push	{r7, lr}
878000f4:	b082      	sub	sp, #8
878000f6:	af02      	add	r7, sp, #8
878000f8:	2300      	movs	r3, #0
878000fa:	9301      	str	r3, [sp, #4]
878000fc:	f44f 733d 	mov.w	r3, #756	; 0x2f4
87800100:	f2c0 230e 	movt	r3, #526	; 0x20e
87800104:	9300      	str	r3, [sp, #0]
87800106:	2300      	movs	r3, #0
87800108:	2200      	movs	r2, #0
8780010a:	2105      	movs	r1, #5
8780010c:	2068      	movs	r0, #104	; 0x68
8780010e:	f2c0 200e 	movt	r0, #526	; 0x20e
87800112:	f7ff ff83 	bl	8780001c <IOMUXC_SetPinMux>
87800116:	f241 03b0 	movw	r3, #4272	; 0x10b0
8780011a:	9301      	str	r3, [sp, #4]
8780011c:	f44f 733d 	mov.w	r3, #756	; 0x2f4
87800120:	f2c0 230e 	movt	r3, #526	; 0x20e
87800124:	9300      	str	r3, [sp, #0]
87800126:	2300      	movs	r3, #0
87800128:	2200      	movs	r2, #0
8780012a:	2105      	movs	r1, #5
8780012c:	2068      	movs	r0, #104	; 0x68
8780012e:	f2c0 200e 	movt	r0, #526	; 0x20e
87800132:	f7ff ff92 	bl	8780005a <IOMUXC_SetPinConfig>
87800136:	f44f 4340 	mov.w	r3, #49152	; 0xc000
8780013a:	f2c0 2309 	movt	r3, #521	; 0x209
8780013e:	2208      	movs	r2, #8
87800140:	605a      	str	r2, [r3, #4]
87800142:	f44f 4340 	mov.w	r3, #49152	; 0xc000
87800146:	f2c0 2309 	movt	r3, #521	; 0x209
8780014a:	681a      	ldr	r2, [r3, #0]
8780014c:	f44f 4340 	mov.w	r3, #49152	; 0xc000
87800150:	f2c0 2309 	movt	r3, #521	; 0x209
87800154:	f022 0208 	bic.w	r2, r2, #8
87800158:	601a      	str	r2, [r3, #0]
8780015a:	bf00      	nop
8780015c:	46bd      	mov	sp, r7
8780015e:	bd80      	pop	{r7, pc}

87800160 <led_on>:
87800160:	b480      	push	{r7}
87800162:	af00      	add	r7, sp, #0
87800164:	f44f 4340 	mov.w	r3, #49152	; 0xc000
87800168:	f2c0 2309 	movt	r3, #521	; 0x209
8780016c:	681a      	ldr	r2, [r3, #0]
8780016e:	f44f 4340 	mov.w	r3, #49152	; 0xc000
87800172:	f2c0 2309 	movt	r3, #521	; 0x209
87800176:	f022 0208 	bic.w	r2, r2, #8
8780017a:	601a      	str	r2, [r3, #0]
8780017c:	bf00      	nop
8780017e:	46bd      	mov	sp, r7
87800180:	f85d 7b04 	ldr.w	r7, [sp], #4
87800184:	4770      	bx	lr

87800186 <led_off>:
87800186:	b480      	push	{r7}
87800188:	af00      	add	r7, sp, #0
8780018a:	f44f 4340 	mov.w	r3, #49152	; 0xc000
8780018e:	f2c0 2309 	movt	r3, #521	; 0x209
87800192:	681a      	ldr	r2, [r3, #0]
87800194:	f44f 4340 	mov.w	r3, #49152	; 0xc000
87800198:	f2c0 2309 	movt	r3, #521	; 0x209
8780019c:	f042 0208 	orr.w	r2, r2, #8
878001a0:	601a      	str	r2, [r3, #0]
878001a2:	bf00      	nop
878001a4:	46bd      	mov	sp, r7
878001a6:	f85d 7b04 	ldr.w	r7, [sp], #4
878001aa:	4770      	bx	lr

878001ac <delay_short>:
878001ac:	b480      	push	{r7}
878001ae:	b083      	sub	sp, #12
878001b0:	af00      	add	r7, sp, #0
878001b2:	6078      	str	r0, [r7, #4]
878001b4:	bf00      	nop
878001b6:	687b      	ldr	r3, [r7, #4]
878001b8:	1e5a      	subs	r2, r3, #1
878001ba:	607a      	str	r2, [r7, #4]
878001bc:	2b00      	cmp	r3, #0
878001be:	d1fa      	bne.n	878001b6 <delay_short+0xa>
878001c0:	bf00      	nop
878001c2:	bf00      	nop
878001c4:	370c      	adds	r7, #12
878001c6:	46bd      	mov	sp, r7
878001c8:	f85d 7b04 	ldr.w	r7, [sp], #4
878001cc:	4770      	bx	lr

878001ce <delay>:
878001ce:	b580      	push	{r7, lr}
878001d0:	b082      	sub	sp, #8
878001d2:	af00      	add	r7, sp, #0
878001d4:	6078      	str	r0, [r7, #4]
878001d6:	e003      	b.n	878001e0 <delay+0x12>
878001d8:	f240 70ff 	movw	r0, #2047	; 0x7ff
878001dc:	f7ff ffe6 	bl	878001ac <delay_short>
878001e0:	687b      	ldr	r3, [r7, #4]
878001e2:	1e5a      	subs	r2, r3, #1
878001e4:	607a      	str	r2, [r7, #4]
878001e6:	2b00      	cmp	r3, #0
878001e8:	d1f6      	bne.n	878001d8 <delay+0xa>
878001ea:	bf00      	nop
878001ec:	bf00      	nop
878001ee:	3708      	adds	r7, #8
878001f0:	46bd      	mov	sp, r7
878001f2:	bd80      	pop	{r7, pc}

878001f4 <main>:
878001f4:	b580      	push	{r7, lr}
878001f6:	af00      	add	r7, sp, #0
878001f8:	f7ff ff42 	bl	87800080 <clk_enable>
878001fc:	f7ff ff79 	bl	878000f2 <led_init>
87800200:	f7ff ffc1 	bl	87800186 <led_off>
87800204:	2064      	movs	r0, #100	; 0x64
87800206:	f7ff ffe2 	bl	878001ce <delay>
8780020a:	f7ff ffa9 	bl	87800160 <led_on>
8780020e:	f44f 707a 	mov.w	r0, #1000	; 0x3e8
87800212:	f7ff ffdc 	bl	878001ce <delay>
87800216:	e7f3      	b.n	87800200 <main+0xc>

87800218 <__main_from_arm>:
87800218:	e51ff004 	ldr	pc, [pc, #-4]	; 8780021c <__main_from_arm+0x4>
8780021c:	878001f5 			; <UNDEFINED> instruction: 0x878001f5

Disassembly of section .comment:

00000000 <.comment>:
   0:	3a434347 	bcc	10d0d24 <_start-0x8672f2dc>
   4:	4e472820 	cdpmi	8, 4, cr2, cr7, cr0, {1}
   8:	6f542055 	svcvs	0x00542055
   c:	68636c6f 	stmdavs	r3!, {r0, r1, r2, r3, r5, r6, sl, fp, sp, lr}^
  10:	206e6961 	rsbcs	r6, lr, r1, ror #18
  14:	20726f66 	rsbscs	r6, r2, r6, ror #30
  18:	20656874 	rsbcs	r6, r5, r4, ror r8
  1c:	72702d41 	rsbsvc	r2, r0, #4160	; 0x1040
  20:	6c69666f 	stclvs	6, cr6, [r9], #-444	; 0xfffffe44
  24:	72412065 	subvc	r2, r1, #101	; 0x65
  28:	74696863 	strbtvc	r6, [r9], #-2147	; 0xfffff79d
  2c:	75746365 	ldrbvc	r6, [r4, #-869]!	; 0xfffffc9b
  30:	31206572 			; <UNDEFINED> instruction: 0x31206572
  34:	2d332e30 	ldccs	14, cr2, [r3, #-192]!	; 0xffffff40
  38:	31323032 	teqcc	r2, r2, lsr r0
  3c:	2037302e 	eorscs	r3, r7, lr, lsr #32
  40:	6d726128 	ldfvse	f6, [r2, #-160]!	; 0xffffff60
  44:	2e30312d 	rsfcssp	f3, f0, #5.0
  48:	29293932 	stmdbcs	r9!, {r1, r4, r5, r8, fp, ip, sp}
  4c:	2e303120 	rsfcssp	f3, f0, f0
  50:	20312e33 	eorscs	r2, r1, r3, lsr lr
  54:	31323032 	teqcc	r2, r2, lsr r0
  58:	31323630 	teqcc	r2, r0, lsr r6
	...

Disassembly of section .ARM.attributes:

00000000 <.ARM.attributes>:
   0:	00003041 	andeq	r3, r0, r1, asr #32
   4:	61656100 	cmnvs	r5, r0, lsl #2
   8:	01006962 	tsteq	r0, r2, ror #18
   c:	00000026 	andeq	r0, r0, r6, lsr #32
  10:	412d3705 			; <UNDEFINED> instruction: 0x412d3705
  14:	070a0600 	streq	r0, [sl, -r0, lsl #12]
  18:	09010841 	stmdbeq	r1, {r0, r6, fp}
  1c:	0c030a02 			; <UNDEFINED> instruction: 0x0c030a02
  20:	14041201 	strne	r1, [r4], #-513	; 0xfffffdff
  24:	17011501 	strne	r1, [r1, -r1, lsl #10]
  28:	1a011803 	bne	4603c <_start-0x877b9fc4>
  2c:	22011c02 	andcs	r1, r1, #512	; 0x200
  30:	Address 0x0000000000000030 is out of bounds.

